; Function Attrs: mustprogress nofree norecurse nosync nounwind willreturn memory(read, inaccessiblemem: none) uwtable
define dso_local noundef i32 @_ZNK4llvm14RISCVInstrInfo31getMachineCombinerTraceStrategyEv(ptr nocapture noundef nonnull readonly align 8 dereferenceable(88) %0) unnamed_addr #9 align 2 {
  %2 = load i16, ptr getelementptr inbounds nuw (i8, ptr @_ZL28ForceMachineCombinerStrategy, i64 8), align 8
  %3 = icmp eq i16 %2, 0
  br i1 %3, label %4, label %16

4:                                                ; preds = %1
  %5 = getelementptr inbounds nuw i8, ptr %0, i64 80
  %6 = load ptr, ptr %5, align 8
  %7 = getelementptr inbounds nuw i8, ptr %6, i64 184
  %8 = load ptr, ptr %7, align 8
  %9 = getelementptr inbounds nuw i8, ptr %8, i64 40
  %10 = load ptr, ptr %9, align 8
  %.not = icmp eq ptr %10, null
  br i1 %.not, label %18, label %11

11:                                               ; preds = %4
  %12 = getelementptr inbounds nuw i8, ptr %8, i64 4
  %13 = load i32, ptr %12, align 4
  %14 = icmp ult i32 %13, 2
  %15 = zext i1 %14 to i32
  br label %18

16:                                               ; preds = %1
  %17 = load i32, ptr getelementptr inbounds (i8, ptr @_ZL28ForceMachineCombinerStrategy, i64 128), align 8
  br label %18

18:                                               ; preds = %4, %11, %16
  %.0 = phi i32 [ %17, %16 ], [ 0, %4 ], [ %15, %11 ]
  ret i32 %.0
}